target datalayout = "e-m:e-p270:32:32-p271:32:32-p272:64:64-i64:64-i128:128-f80:128-n8:16:32:64-S128"
target triple = "x86_64-pc-linux-gnu"

%"class.Eigen::PlainObjectBase" = type { %"class.Eigen::DenseStorage" }
%"class.Eigen::DenseStorage" = type { %"struct.Eigen::internal::plain_array" }
%"struct.Eigen::internal::plain_array" = type { [16 x double] }
%"struct.Eigen::internal::evaluator.303" = type { %"struct.Eigen::internal::evaluator.304" }
%"struct.Eigen::internal::evaluator.304" = type { %"class.Eigen::internal::plainobjectbase_evaluator_data" }
%"class.Eigen::internal::plainobjectbase_evaluator_data" = type { ptr }

@.str = private unnamed_addr constant [153 x i8] c"generated/home/dtcxzyw/WorkSpace/Projects/compilers/llvm-opt-benchmark/bench/open3d/Open3D/cpp/tools/ManuallyAlignPointCloud/ManuallyAlignPointCloud.cpp\00", align 1
@__PRETTY_FUNCTION__._Z19PrintTransformationRKN5Eigen6MatrixIdLi4ELi4ELi0ELi4ELi4EEE = private unnamed_addr constant [50 x i8] c"void PrintTransformation(const Eigen::Matrix4d &)\00", align 1
@.str.6 = private unnamed_addr constant [27 x i8] c"Current transformation is:\00", align 1
@.str.7 = private unnamed_addr constant [29 x i8] c"\09{:.6f} {:.6f} {:.6f} {:.6f}\00", align 1

; Function Attrs: mustprogress nounwind ssp uwtable
define linkonce_odr dso_local noundef i64 @_ZN5Eigen12DenseStorageIdLi16ELi4ELi4ELi0EE4rowsEv() #1 comdat align 2 {
  ret i64 4
}

; Function Attrs: inlinehint mustprogress nounwind ssp uwtable
define linkonce_odr dso_local noundef i64 @_ZNK5Eigen15PlainObjectBaseINS_6MatrixIdLi4ELi4ELi0ELi4ELi4EEEE4rowsEv(ptr noundef nonnull align 16 dereferenceable(128) %0) #6 comdat align 2 {
  %2 = alloca ptr, align 8
  store ptr %0, ptr %2, align 8, !tbaa !1137
  %3 = call noundef i64 @_ZN5Eigen12DenseStorageIdLi16ELi4ELi4ELi0EE4rowsEv() #7
  ret i64 %3
}

; Function Attrs: inlinehint mustprogress nounwind ssp uwtable
define linkonce_odr dso_local noundef i64 @_ZNK5Eigen9EigenBaseINS_6MatrixIdLi4ELi4ELi0ELi4ELi4EEEE4rowsEv(ptr noundef nonnull align 1 dereferenceable(1) %0) #6 comdat align 2 {
  %2 = alloca ptr, align 8
  store ptr %0, ptr %2, align 8, !tbaa !1153
  %3 = load ptr, ptr %2, align 8
  %4 = call noundef nonnull align 16 dereferenceable(128) ptr @_ZNK5Eigen9EigenBaseINS_6MatrixIdLi4ELi4ELi0ELi4ELi4EEEE7derivedEv(ptr noundef nonnull align 1 dereferenceable(1) %3)
  %5 = call noundef i64 @_ZNK5Eigen15PlainObjectBaseINS_6MatrixIdLi4ELi4ELi0ELi4ELi4EEEE4rowsEv(ptr noundef nonnull align 16 dereferenceable(128) %4) #7
  ret i64 %5
}

; Function Attrs: mustprogress nounwind ssp uwtable
define linkonce_odr dso_local noundef i64 @_ZNK5Eigen9DenseBaseINS_6MatrixIdLi4ELi4ELi0ELi4ELi4EEEE9innerSizeEv(ptr noundef nonnull align 1 dereferenceable(1) %0) #1 comdat align 2 {
  %2 = alloca ptr, align 8
  store ptr %0, ptr %2, align 8, !tbaa !1147
  %3 = load ptr, ptr %2, align 8
  %4 = call noundef i64 @_ZNK5Eigen9EigenBaseINS_6MatrixIdLi4ELi4ELi0ELi4ELi4EEEE4rowsEv(ptr noundef nonnull align 1 dereferenceable(1) %3) #7
  ret i64 %4
}

; Function Attrs: inlinehint mustprogress nounwind ssp uwtable
define linkonce_odr dso_local void @_ZN5Eigen8internal22ignore_unused_variableIlEEvRKT_(ptr noundef nonnull align 8 dereferenceable(8) %0) #6 comdat {
  %2 = alloca ptr, align 8
  store ptr %0, ptr %2, align 8, !tbaa !333
  ret void
}

; Function Attrs: noinline noreturn nounwind ssp uwtable
define linkonce_odr hidden void @__clang_call_terminate(ptr noundef %0) #12 comdat {
  %2 = call ptr @__cxa_begin_catch(ptr %0) #7
  call void @_ZSt9terminatev() #33
  unreachable
}

; Function Attrs: inlinehint mustprogress nounwind ssp uwtable
define linkonce_odr dso_local noundef i64 @_ZNK5Eigen6MatrixIdLi4ELi4ELi0ELi4ELi4EE11outerStrideEv(ptr noundef nonnull align 16 dereferenceable(128) %0) #6 comdat align 2 personality ptr @__gxx_personality_v0 {
  %2 = alloca ptr, align 8
  store ptr %0, ptr %2, align 8, !tbaa !35
  %3 = load ptr, ptr %2, align 8
  %4 = invoke noundef i64 @_ZNK5Eigen9DenseBaseINS_6MatrixIdLi4ELi4ELi0ELi4ELi4EEEE9innerSizeEv(ptr noundef nonnull align 1 dereferenceable(1) %3)
          to label %5 unwind label %6

5:                                                ; preds = %1
  ret i64 %4

6:                                                ; preds = %1
  %7 = landingpad { ptr, i32 }
          catch ptr null
  %8 = extractvalue { ptr, i32 } %7, 0
  call void @__clang_call_terminate(ptr %8) #33
  unreachable
}

; Function Attrs: mustprogress nounwind ssp uwtable
define linkonce_odr dso_local noundef ptr @_ZNK5Eigen12DenseStorageIdLi16ELi4ELi4ELi0EE4dataEv(ptr noundef nonnull align 16 dereferenceable(128) %0) #1 comdat align 2 {
  %2 = alloca ptr, align 8
  store ptr %0, ptr %2, align 8, !tbaa !1143
  %3 = load ptr, ptr %2, align 8
  %4 = getelementptr inbounds nuw %"class.Eigen::DenseStorage", ptr %3, i32 0, i32 0
  %5 = getelementptr inbounds nuw %"struct.Eigen::internal::plain_array", ptr %4, i32 0, i32 0
  %6 = getelementptr inbounds [16 x double], ptr %5, i64 0, i64 0
  ret ptr %6
}

; Function Attrs: inlinehint mustprogress ssp uwtable
define linkonce_odr dso_local void @_ZN5Eigen8internal30plainobjectbase_evaluator_dataIdLi4EEC2EPKdl(ptr noundef nonnull align 8 dereferenceable(8) %0, ptr noundef %1, i64 noundef %2) unnamed_addr #8 comdat align 2 {
  %4 = alloca ptr, align 8
  %5 = alloca ptr, align 8
  %6 = alloca i64, align 8
  store ptr %0, ptr %4, align 8, !tbaa !1171
  store ptr %1, ptr %5, align 8, !tbaa !41
  store i64 %2, ptr %6, align 8, !tbaa !26
  %7 = load ptr, ptr %4, align 8
  %8 = getelementptr inbounds nuw %"class.Eigen::internal::plainobjectbase_evaluator_data", ptr %7, i32 0, i32 0
  %9 = load ptr, ptr %5, align 8, !tbaa !41
  store ptr %9, ptr %8, align 8, !tbaa !1173
  call void @_ZN5Eigen8internal22ignore_unused_variableIlEEvRKT_(ptr noundef nonnull align 8 dereferenceable(8) %6)
  ret void
}

; Function Attrs: inlinehint mustprogress nounwind ssp uwtable
define linkonce_odr dso_local noundef i64 @_ZNK5Eigen15DenseCoeffsBaseINS_6MatrixIdLi4ELi4ELi0ELi4ELi4EEELi3EE11outerStrideEv(ptr noundef nonnull align 1 dereferenceable(1) %0) #6 comdat align 2 personality ptr @__gxx_personality_v0 {
  %2 = alloca ptr, align 8
  store ptr %0, ptr %2, align 8, !tbaa !1169
  %3 = load ptr, ptr %2, align 8
  %4 = invoke noundef nonnull align 16 dereferenceable(128) ptr @_ZNK5Eigen9EigenBaseINS_6MatrixIdLi4ELi4ELi0ELi4ELi4EEEE7derivedEv(ptr noundef nonnull align 1 dereferenceable(1) %3)
          to label %5 unwind label %7

5:                                                ; preds = %1
  %6 = call noundef i64 @_ZNK5Eigen6MatrixIdLi4ELi4ELi0ELi4ELi4EE11outerStrideEv(ptr noundef nonnull align 16 dereferenceable(128) %4) #7
  ret i64 %6

7:                                                ; preds = %1
  %8 = landingpad { ptr, i32 }
          catch ptr null
  %9 = extractvalue { ptr, i32 } %8, 0
  call void @__clang_call_terminate(ptr %9) #33
  unreachable
}

; Function Attrs: inlinehint mustprogress ssp uwtable
define linkonce_odr dso_local noundef ptr @_ZNK5Eigen15PlainObjectBaseINS_6MatrixIdLi4ELi4ELi0ELi4ELi4EEEE4dataEv(ptr noundef nonnull align 16 dereferenceable(128) %0) #8 comdat align 2 {
  %2 = alloca ptr, align 8
  store ptr %0, ptr %2, align 8, !tbaa !1137
  %3 = load ptr, ptr %2, align 8
  %4 = getelementptr inbounds nuw %"class.Eigen::PlainObjectBase", ptr %3, i32 0, i32 0
  %5 = call noundef ptr @_ZNK5Eigen12DenseStorageIdLi16ELi4ELi4ELi0EE4dataEv(ptr noundef nonnull align 16 dereferenceable(128) %4)
  ret ptr %5
}

; Function Attrs: inlinehint mustprogress nounwind ssp uwtable
define linkonce_odr dso_local void @_ZN5Eigen8internal14evaluator_baseINS_6MatrixIdLi4ELi4ELi0ELi4ELi4EEEEC2Ev(ptr noundef nonnull align 1 dereferenceable(1) %0) unnamed_addr #6 comdat align 2 {
  %2 = alloca ptr, align 8
  store ptr %0, ptr %2, align 8, !tbaa !1161
  ret void
}

; Function Attrs: inlinehint mustprogress nounwind ssp uwtable
define linkonce_odr dso_local noundef i64 @_ZNK5Eigen8internal30plainobjectbase_evaluator_dataIdLi4EE11outerStrideEv(ptr noundef nonnull align 8 dereferenceable(8) %0) #6 comdat align 2 {
  %2 = alloca ptr, align 8
  store ptr %0, ptr %2, align 8, !tbaa !1171
  ret i64 4
}

; Function Attrs: inlinehint mustprogress ssp uwtable
define linkonce_odr dso_local void @_ZN5Eigen8internal9evaluatorINS_15PlainObjectBaseINS_6MatrixIdLi4ELi4ELi0ELi4ELi4EEEEEEC2ERKS5_(ptr noundef nonnull align 8 dereferenceable(8) %0, ptr noundef nonnull align 16 dereferenceable(128) %1) unnamed_addr #8 comdat align 2 personality ptr @__gxx_personality_v0 {
  %3 = alloca ptr, align 8
  %4 = alloca ptr, align 8
  %5 = alloca ptr, align 8
  %6 = alloca i32, align 4
  store ptr %0, ptr %3, align 8, !tbaa !1167
  store ptr %1, ptr %4, align 8, !tbaa !1137
  %7 = load ptr, ptr %3, align 8
  call void @_ZN5Eigen8internal14evaluator_baseINS_6MatrixIdLi4ELi4ELi0ELi4ELi4EEEEC2Ev(ptr noundef nonnull align 1 dereferenceable(1) %7)
  %8 = getelementptr inbounds nuw %"struct.Eigen::internal::evaluator.304", ptr %7, i32 0, i32 0
  %9 = load ptr, ptr %4, align 8, !tbaa !1137
  %10 = invoke noundef ptr @_ZNK5Eigen15PlainObjectBaseINS_6MatrixIdLi4ELi4ELi0ELi4ELi4EEEE4dataEv(ptr noundef nonnull align 16 dereferenceable(128) %9)
          to label %11 unwind label %15

11:                                               ; preds = %2
  %12 = load ptr, ptr %4, align 8, !tbaa !1137
  %13 = call noundef i64 @_ZNK5Eigen15DenseCoeffsBaseINS_6MatrixIdLi4ELi4ELi0ELi4ELi4EEELi3EE11outerStrideEv(ptr noundef nonnull align 1 dereferenceable(1) %12) #7
  invoke void @_ZN5Eigen8internal30plainobjectbase_evaluator_dataIdLi4EEC2EPKdl(ptr noundef nonnull align 8 dereferenceable(8) %8, ptr noundef %10, i64 noundef %13)
          to label %14 unwind label %15

14:                                               ; preds = %11
  ret void

15:                                               ; preds = %11, %2
  %16 = landingpad { ptr, i32 }
          cleanup
  %17 = extractvalue { ptr, i32 } %16, 0
  store ptr %17, ptr %5, align 8
  %18 = extractvalue { ptr, i32 } %16, 1
  store i32 %18, ptr %6, align 4
  call void @_ZN5Eigen8internal14evaluator_baseINS_6MatrixIdLi4ELi4ELi0ELi4ELi4EEEED2Ev(ptr noundef nonnull align 1 dereferenceable(1) %7) #7
  br label %19

19:                                               ; preds = %15
  %20 = load ptr, ptr %5, align 8
  %21 = load i32, ptr %6, align 4
  %22 = insertvalue { ptr, i32 } poison, ptr %20, 0
  %23 = insertvalue { ptr, i32 } %22, i32 %21, 1
  resume { ptr, i32 } %23
}

; Function Attrs: inlinehint mustprogress nounwind ssp uwtable
define linkonce_odr dso_local void @_ZN5Eigen8internal14evaluator_baseINS_6MatrixIdLi4ELi4ELi0ELi4ELi4EEEED2Ev(ptr noundef nonnull align 1 dereferenceable(1) %0) unnamed_addr #6 comdat align 2 {
  %2 = alloca ptr, align 8
  store ptr %0, ptr %2, align 8, !tbaa !1161
  ret void
}

; Function Attrs: inlinehint mustprogress nounwind ssp uwtable
define linkonce_odr dso_local noundef nonnull align 8 dereferenceable(8) ptr @_ZNK5Eigen8internal9evaluatorINS_15PlainObjectBaseINS_6MatrixIdLi4ELi4ELi0ELi4ELi4EEEEEE5coeffEll(ptr noundef nonnull align 8 dereferenceable(8) %0, i64 noundef %1, i64 noundef %2) #6 comdat align 2 {
  %4 = alloca ptr, align 8
  %5 = alloca i64, align 8
  %6 = alloca i64, align 8
  store ptr %0, ptr %4, align 8, !tbaa !1167
  store i64 %1, ptr %5, align 8, !tbaa !26
  store i64 %2, ptr %6, align 8, !tbaa !26
  %7 = load ptr, ptr %4, align 8
  %8 = getelementptr inbounds nuw %"struct.Eigen::internal::evaluator.304", ptr %7, i32 0, i32 0
  %9 = getelementptr inbounds nuw %"class.Eigen::internal::plainobjectbase_evaluator_data", ptr %8, i32 0, i32 0
  %10 = load ptr, ptr %9, align 8, !tbaa !1179
  %11 = load i64, ptr %5, align 8, !tbaa !26
  %12 = load i64, ptr %6, align 8, !tbaa !26
  %13 = getelementptr inbounds nuw %"struct.Eigen::internal::evaluator.304", ptr %7, i32 0, i32 0
  %14 = call noundef i64 @_ZNK5Eigen8internal30plainobjectbase_evaluator_dataIdLi4EE11outerStrideEv(ptr noundef nonnull align 8 dereferenceable(8) %13) #7
  %15 = mul nsw i64 %12, %14
  %16 = add nsw i64 %11, %15
  %17 = getelementptr inbounds double, ptr %10, i64 %16
  ret ptr %17
}

; Function Attrs: inlinehint mustprogress ssp uwtable
define linkonce_odr dso_local void @_ZN5Eigen8internal9evaluatorINS_6MatrixIdLi4ELi4ELi0ELi4ELi4EEEEC2ERKS3_(ptr noundef nonnull align 8 dereferenceable(8) %0, ptr noundef nonnull align 16 dereferenceable(128) %1) unnamed_addr #8 comdat align 2 {
  %3 = alloca ptr, align 8
  %4 = alloca ptr, align 8
  store ptr %0, ptr %3, align 8, !tbaa !1157
  store ptr %1, ptr %4, align 8, !tbaa !35
  %5 = load ptr, ptr %3, align 8
  %6 = load ptr, ptr %4, align 8, !tbaa !35
  call void @_ZN5Eigen8internal9evaluatorINS_15PlainObjectBaseINS_6MatrixIdLi4ELi4ELi0ELi4ELi4EEEEEEC2ERKS5_(ptr noundef nonnull align 8 dereferenceable(8) %5, ptr noundef nonnull align 16 dereferenceable(128) %6)
  ret void
}

; Function Attrs: mustprogress nounwind ssp uwtable
define linkonce_odr dso_local noundef nonnull align 16 dereferenceable(128) ptr @_ZNK5Eigen9EigenBaseINS_6MatrixIdLi4ELi4ELi0ELi4ELi4EEEE7derivedEv(ptr noundef nonnull align 1 dereferenceable(1) %0) #1 comdat align 2 {
  %2 = alloca ptr, align 8
  store ptr %0, ptr %2, align 8, !tbaa !1153
  %3 = load ptr, ptr %2, align 8
  ret ptr %3
}

; Function Attrs: inlinehint mustprogress ssp uwtable
define linkonce_odr dso_local noundef nonnull align 8 dereferenceable(8) ptr @_ZNK5Eigen15DenseCoeffsBaseINS_6MatrixIdLi4ELi4ELi0ELi4ELi4EEELi0EE5coeffEll(ptr noundef nonnull align 1 dereferenceable(1) %0, i64 noundef %1, i64 noundef %2) #8 comdat align 2 personality ptr @__gxx_personality_v0 {
  %4 = alloca ptr, align 8
  %5 = alloca i64, align 8
  %6 = alloca i64, align 8
  %7 = alloca %"struct.Eigen::internal::evaluator.303", align 8
  %8 = alloca ptr, align 8
  %9 = alloca i32, align 4
  store ptr %0, ptr %4, align 8, !tbaa !43
  store i64 %1, ptr %5, align 8, !tbaa !26
  store i64 %2, ptr %6, align 8, !tbaa !26
  %10 = load ptr, ptr %4, align 8
  call void @llvm.lifetime.start.p0(i64 8, ptr %7) #7
  %11 = call noundef nonnull align 16 dereferenceable(128) ptr @_ZNK5Eigen9EigenBaseINS_6MatrixIdLi4ELi4ELi0ELi4ELi4EEEE7derivedEv(ptr noundef nonnull align 1 dereferenceable(1) %10)
  call void @_ZN5Eigen8internal9evaluatorINS_6MatrixIdLi4ELi4ELi0ELi4ELi4EEEEC2ERKS3_(ptr noundef nonnull align 8 dereferenceable(8) %7, ptr noundef nonnull align 16 dereferenceable(128) %11)
  %12 = load i64, ptr %5, align 8, !tbaa !26
  %13 = load i64, ptr %6, align 8, !tbaa !26
  %14 = invoke noundef nonnull align 8 dereferenceable(8) ptr @_ZNK5Eigen8internal9evaluatorINS_15PlainObjectBaseINS_6MatrixIdLi4ELi4ELi0ELi4ELi4EEEEEE5coeffEll(ptr noundef nonnull align 8 dereferenceable(8) %7, i64 noundef %12, i64 noundef %13)
          to label %15 unwind label %16

15:                                               ; preds = %3
  call void @_ZN5Eigen8internal14evaluator_baseINS_6MatrixIdLi4ELi4ELi0ELi4ELi4EEEED2Ev(ptr noundef nonnull align 8 dereferenceable(8) %7) #7
  call void @llvm.lifetime.end.p0(i64 8, ptr %7) #7
  ret ptr %14

16:                                               ; preds = %3
  %17 = landingpad { ptr, i32 }
          cleanup
  %18 = extractvalue { ptr, i32 } %17, 0
  store ptr %18, ptr %8, align 8
  %19 = extractvalue { ptr, i32 } %17, 1
  store i32 %19, ptr %9, align 4
  call void @_ZN5Eigen8internal14evaluator_baseINS_6MatrixIdLi4ELi4ELi0ELi4ELi4EEEED2Ev(ptr noundef nonnull align 8 dereferenceable(8) %7) #7
  call void @llvm.lifetime.end.p0(i64 8, ptr %7) #7
  br label %20

20:                                               ; preds = %16
  %21 = load ptr, ptr %8, align 8
  %22 = load i32, ptr %9, align 4
  %23 = insertvalue { ptr, i32 } poison, ptr %21, 0
  %24 = insertvalue { ptr, i32 } %23, i32 %22, 1
  resume { ptr, i32 } %24
}

; Function Attrs: inlinehint mustprogress ssp uwtable
define linkonce_odr dso_local noundef nonnull align 8 dereferenceable(8) ptr @_ZNK5Eigen15DenseCoeffsBaseINS_6MatrixIdLi4ELi4ELi0ELi4ELi4EEELi0EEclEll(ptr noundef nonnull align 1 dereferenceable(1) %0, i64 noundef %1, i64 noundef %2) #8 comdat align 2 {
  %4 = alloca ptr, align 8
  %5 = alloca i64, align 8
  %6 = alloca i64, align 8
  store ptr %0, ptr %4, align 8, !tbaa !43
  store i64 %1, ptr %5, align 8, !tbaa !26
  store i64 %2, ptr %6, align 8, !tbaa !26
  %7 = load ptr, ptr %4, align 8
  %8 = load i64, ptr %5, align 8, !tbaa !26
  %9 = load i64, ptr %6, align 8, !tbaa !26
  %10 = call noundef nonnull align 8 dereferenceable(8) ptr @_ZNK5Eigen15DenseCoeffsBaseINS_6MatrixIdLi4ELi4ELi0ELi4ELi4EEELi0EE5coeffEll(ptr noundef nonnull align 1 dereferenceable(1) %7, i64 noundef %8, i64 noundef %9)
  ret ptr %10
}

; Function Attrs: mustprogress ssp uwtable
define dso_local void @_Z19PrintTransformationRKN5Eigen6MatrixIdLi4ELi4ELi0ELi4ELi4EEE(ptr noundef nonnull align 16 dereferenceable(128) %0) #3 {
  %2 = alloca ptr, align 8
  store ptr %0, ptr %2, align 8, !tbaa !35
  call void @_ZN6open3d7utility6Logger8LogInfo_IJEEEvPKciS4_S4_DpOT_(ptr noundef @.str, i32 noundef 15, ptr noundef @__PRETTY_FUNCTION__._Z19PrintTransformationRKN5Eigen6MatrixIdLi4ELi4ELi0ELi4ELi4EEE, ptr noundef @.str.6)
  %3 = load ptr, ptr %2, align 8, !tbaa !35
  %4 = call noundef nonnull align 8 dereferenceable(8) ptr @_ZNK5Eigen15DenseCoeffsBaseINS_6MatrixIdLi4ELi4ELi0ELi4ELi4EEELi0EEclEll(ptr noundef nonnull align 1 dereferenceable(1) %3, i64 noundef 0, i64 noundef 0)
  %5 = load ptr, ptr %2, align 8, !tbaa !35
  %6 = call noundef nonnull align 8 dereferenceable(8) ptr @_ZNK5Eigen15DenseCoeffsBaseINS_6MatrixIdLi4ELi4ELi0ELi4ELi4EEELi0EEclEll(ptr noundef nonnull align 1 dereferenceable(1) %5, i64 noundef 0, i64 noundef 1)
  %7 = load ptr, ptr %2, align 8, !tbaa !35
  %8 = call noundef nonnull align 8 dereferenceable(8) ptr @_ZNK5Eigen15DenseCoeffsBaseINS_6MatrixIdLi4ELi4ELi0ELi4ELi4EEELi0EEclEll(ptr noundef nonnull align 1 dereferenceable(1) %7, i64 noundef 0, i64 noundef 2)
  %9 = load ptr, ptr %2, align 8, !tbaa !35
  %10 = call noundef nonnull align 8 dereferenceable(8) ptr @_ZNK5Eigen15DenseCoeffsBaseINS_6MatrixIdLi4ELi4ELi0ELi4ELi4EEELi0EEclEll(ptr noundef nonnull align 1 dereferenceable(1) %9, i64 noundef 0, i64 noundef 3)
  call void @_ZN6open3d7utility6Logger8LogInfo_IJRKdS4_S4_S4_EEEvPKciS6_S6_DpOT_(ptr noundef @.str, i32 noundef 18, ptr noundef @__PRETTY_FUNCTION__._Z19PrintTransformationRKN5Eigen6MatrixIdLi4ELi4ELi0ELi4ELi4EEE, ptr noundef @.str.7, ptr noundef nonnull align 8 dereferenceable(8) %4, ptr noundef nonnull align 8 dereferenceable(8) %6, ptr noundef nonnull align 8 dereferenceable(8) %8, ptr noundef nonnull align 8 dereferenceable(8) %10)
  %11 = load ptr, ptr %2, align 8, !tbaa !35
  %12 = call noundef nonnull align 8 dereferenceable(8) ptr @_ZNK5Eigen15DenseCoeffsBaseINS_6MatrixIdLi4ELi4ELi0ELi4ELi4EEELi0EEclEll(ptr noundef nonnull align 1 dereferenceable(1) %11, i64 noundef 1, i64 noundef 0)
  %13 = load ptr, ptr %2, align 8, !tbaa !35
  %14 = call noundef nonnull align 8 dereferenceable(8) ptr @_ZNK5Eigen15DenseCoeffsBaseINS_6MatrixIdLi4ELi4ELi0ELi4ELi4EEELi0EEclEll(ptr noundef nonnull align 1 dereferenceable(1) %13, i64 noundef 1, i64 noundef 1)
  %15 = load ptr, ptr %2, align 8, !tbaa !35
  %16 = call noundef nonnull align 8 dereferenceable(8) ptr @_ZNK5Eigen15DenseCoeffsBaseINS_6MatrixIdLi4ELi4ELi0ELi4ELi4EEELi0EEclEll(ptr noundef nonnull align 1 dereferenceable(1) %15, i64 noundef 1, i64 noundef 2)
  %17 = load ptr, ptr %2, align 8, !tbaa !35
  %18 = call noundef nonnull align 8 dereferenceable(8) ptr @_ZNK5Eigen15DenseCoeffsBaseINS_6MatrixIdLi4ELi4ELi0ELi4ELi4EEELi0EEclEll(ptr noundef nonnull align 1 dereferenceable(1) %17, i64 noundef 1, i64 noundef 3)
  call void @_ZN6open3d7utility6Logger8LogInfo_IJRKdS4_S4_S4_EEEvPKciS6_S6_DpOT_(ptr noundef @.str, i32 noundef 21, ptr noundef @__PRETTY_FUNCTION__._Z19PrintTransformationRKN5Eigen6MatrixIdLi4ELi4ELi0ELi4ELi4EEE, ptr noundef @.str.7, ptr noundef nonnull align 8 dereferenceable(8) %12, ptr noundef nonnull align 8 dereferenceable(8) %14, ptr noundef nonnull align 8 dereferenceable(8) %16, ptr noundef nonnull align 8 dereferenceable(8) %18)
  %19 = load ptr, ptr %2, align 8, !tbaa !35
  %20 = call noundef nonnull align 8 dereferenceable(8) ptr @_ZNK5Eigen15DenseCoeffsBaseINS_6MatrixIdLi4ELi4ELi0ELi4ELi4EEELi0EEclEll(ptr noundef nonnull align 1 dereferenceable(1) %19, i64 noundef 2, i64 noundef 0)
  %21 = load ptr, ptr %2, align 8, !tbaa !35
  %22 = call noundef nonnull align 8 dereferenceable(8) ptr @_ZNK5Eigen15DenseCoeffsBaseINS_6MatrixIdLi4ELi4ELi0ELi4ELi4EEELi0EEclEll(ptr noundef nonnull align 1 dereferenceable(1) %21, i64 noundef 2, i64 noundef 1)
  %23 = load ptr, ptr %2, align 8, !tbaa !35
  %24 = call noundef nonnull align 8 dereferenceable(8) ptr @_ZNK5Eigen15DenseCoeffsBaseINS_6MatrixIdLi4ELi4ELi0ELi4ELi4EEELi0EEclEll(ptr noundef nonnull align 1 dereferenceable(1) %23, i64 noundef 2, i64 noundef 2)
  %25 = load ptr, ptr %2, align 8, !tbaa !35
  %26 = call noundef nonnull align 8 dereferenceable(8) ptr @_ZNK5Eigen15DenseCoeffsBaseINS_6MatrixIdLi4ELi4ELi0ELi4ELi4EEELi0EEclEll(ptr noundef nonnull align 1 dereferenceable(1) %25, i64 noundef 2, i64 noundef 3)
  call void @_ZN6open3d7utility6Logger8LogInfo_IJRKdS4_S4_S4_EEEvPKciS6_S6_DpOT_(ptr noundef @.str, i32 noundef 24, ptr noundef @__PRETTY_FUNCTION__._Z19PrintTransformationRKN5Eigen6MatrixIdLi4ELi4ELi0ELi4ELi4EEE, ptr noundef @.str.7, ptr noundef nonnull align 8 dereferenceable(8) %20, ptr noundef nonnull align 8 dereferenceable(8) %22, ptr noundef nonnull align 8 dereferenceable(8) %24, ptr noundef nonnull align 8 dereferenceable(8) %26)
  %27 = load ptr, ptr %2, align 8, !tbaa !35
  %28 = call noundef nonnull align 8 dereferenceable(8) ptr @_ZNK5Eigen15DenseCoeffsBaseINS_6MatrixIdLi4ELi4ELi0ELi4ELi4EEELi0EEclEll(ptr noundef nonnull align 1 dereferenceable(1) %27, i64 noundef 3, i64 noundef 0)
  %29 = load ptr, ptr %2, align 8, !tbaa !35
  %30 = call noundef nonnull align 8 dereferenceable(8) ptr @_ZNK5Eigen15DenseCoeffsBaseINS_6MatrixIdLi4ELi4ELi0ELi4ELi4EEELi0EEclEll(ptr noundef nonnull align 1 dereferenceable(1) %29, i64 noundef 3, i64 noundef 1)
  %31 = load ptr, ptr %2, align 8, !tbaa !35
  %32 = call noundef nonnull align 8 dereferenceable(8) ptr @_ZNK5Eigen15DenseCoeffsBaseINS_6MatrixIdLi4ELi4ELi0ELi4ELi4EEELi0EEclEll(ptr noundef nonnull align 1 dereferenceable(1) %31, i64 noundef 3, i64 noundef 2)
  %33 = load ptr, ptr %2, align 8, !tbaa !35
  %34 = call noundef nonnull align 8 dereferenceable(8) ptr @_ZNK5Eigen15DenseCoeffsBaseINS_6MatrixIdLi4ELi4ELi0ELi4ELi4EEELi0EEclEll(ptr noundef nonnull align 1 dereferenceable(1) %33, i64 noundef 3, i64 noundef 3)
  call void @_ZN6open3d7utility6Logger8LogInfo_IJRKdS4_S4_S4_EEEvPKciS6_S6_DpOT_(ptr noundef @.str, i32 noundef 27, ptr noundef @__PRETTY_FUNCTION__._Z19PrintTransformationRKN5Eigen6MatrixIdLi4ELi4ELi0ELi4ELi4EEE, ptr noundef @.str.7, ptr noundef nonnull align 8 dereferenceable(8) %28, ptr noundef nonnull align 8 dereferenceable(8) %30, ptr noundef nonnull align 8 dereferenceable(8) %32, ptr noundef nonnull align 8 dereferenceable(8) %34)
  ret void
}