; Function Attrs: mustprogress ssp uwtable
define dso_local void @_Z19PrintTransformationRKN5Eigen6MatrixIdLi4ELi4ELi0ELi4ELi4EEE(ptr noundef nonnull align 16 dereferenceable(128) %0) local_unnamed_addr #4 personality ptr @__gxx_personality_v0 {
  tail call void @_ZN6open3d7utility6Logger8LogInfo_IJEEEvPKciS4_S4_DpOT_(ptr noundef nonnull @.str, i32 noundef 15, ptr noundef nonnull @__PRETTY_FUNCTION__._Z19PrintTransformationRKN5Eigen6MatrixIdLi4ELi4ELi0ELi4ELi4EEE, ptr noundef nonnull @.str.6)
  %2 = getelementptr inbounds nuw i8, ptr %0, i64 32
  %3 = getelementptr inbounds nuw i8, ptr %0, i64 64
  %4 = getelementptr inbounds nuw i8, ptr %0, i64 96
  tail call void @_ZN6open3d7utility6Logger8LogInfo_IJRKdS4_S4_S4_EEEvPKciS6_S6_DpOT_(ptr noundef nonnull @.str, i32 noundef 18, ptr noundef nonnull @__PRETTY_FUNCTION__._Z19PrintTransformationRKN5Eigen6MatrixIdLi4ELi4ELi0ELi4ELi4EEE, ptr noundef nonnull @.str.7, ptr noundef nonnull align 8 dereferenceable(8) %0, ptr noundef nonnull align 8 dereferenceable(8) %2, ptr noundef nonnull align 8 dereferenceable(8) %3, ptr noundef nonnull align 8 dereferenceable(8) %4)
  %5 = getelementptr inbounds nuw i8, ptr %0, i64 8
  %6 = getelementptr inbounds nuw i8, ptr %0, i64 40
  %7 = getelementptr inbounds nuw i8, ptr %0, i64 72
  %8 = getelementptr inbounds nuw i8, ptr %0, i64 104
  tail call void @_ZN6open3d7utility6Logger8LogInfo_IJRKdS4_S4_S4_EEEvPKciS6_S6_DpOT_(ptr noundef nonnull @.str, i32 noundef 21, ptr noundef nonnull @__PRETTY_FUNCTION__._Z19PrintTransformationRKN5Eigen6MatrixIdLi4ELi4ELi0ELi4ELi4EEE, ptr noundef nonnull @.str.7, ptr noundef nonnull align 8 dereferenceable(8) %5, ptr noundef nonnull align 8 dereferenceable(8) %6, ptr noundef nonnull align 8 dereferenceable(8) %7, ptr noundef nonnull align 8 dereferenceable(8) %8)
  %9 = getelementptr inbounds nuw i8, ptr %0, i64 16
  %10 = getelementptr inbounds nuw i8, ptr %0, i64 48
  %11 = getelementptr inbounds nuw i8, ptr %0, i64 80
  %12 = getelementptr inbounds nuw i8, ptr %0, i64 112
  tail call void @_ZN6open3d7utility6Logger8LogInfo_IJRKdS4_S4_S4_EEEvPKciS6_S6_DpOT_(ptr noundef nonnull @.str, i32 noundef 24, ptr noundef nonnull @__PRETTY_FUNCTION__._Z19PrintTransformationRKN5Eigen6MatrixIdLi4ELi4ELi0ELi4ELi4EEE, ptr noundef nonnull @.str.7, ptr noundef nonnull align 8 dereferenceable(8) %9, ptr noundef nonnull align 8 dereferenceable(8) %10, ptr noundef nonnull align 8 dereferenceable(8) %11, ptr noundef nonnull align 8 dereferenceable(8) %12)
  %13 = getelementptr inbounds nuw i8, ptr %0, i64 24
  %14 = getelementptr inbounds nuw i8, ptr %0, i64 56
  %15 = getelementptr inbounds nuw i8, ptr %0, i64 88
  %16 = getelementptr inbounds nuw i8, ptr %0, i64 120
  tail call void @_ZN6open3d7utility6Logger8LogInfo_IJRKdS4_S4_S4_EEEvPKciS6_S6_DpOT_(ptr noundef nonnull @.str, i32 noundef 27, ptr noundef nonnull @__PRETTY_FUNCTION__._Z19PrintTransformationRKN5Eigen6MatrixIdLi4ELi4ELi0ELi4ELi4EEE, ptr noundef nonnull @.str.7, ptr noundef nonnull align 8 dereferenceable(8) %13, ptr noundef nonnull align 8 dereferenceable(8) %14, ptr noundef nonnull align 8 dereferenceable(8) %15, ptr noundef nonnull align 8 dereferenceable(8) %16)
  ret void
}